; Function Attrs: mustprogress nounwind uwtable
define hidden noundef ptr @_ZN22SystemDictionaryShared27retrieve_lambda_proxy_classEPK27RunTimeLambdaProxyClassInfo(ptr noundef readonly %0) local_unnamed_addr #0 align 2 {
  %.not = icmp eq ptr %0, null
  br i1 %.not, label %_ZN12ResourceMarkD2Ev.exit, label %2

2:                                                ; preds = %1
  %3 = getelementptr inbounds i8, ptr %0, i64 48
  %4 = load ptr, ptr %3, align 8
  %5 = getelementptr inbounds i8, ptr %4, i64 188
  %6 = load i16, ptr %5, align 4
  %7 = and i16 %6, 2
  %.not19 = icmp eq i16 %7, 0
  br i1 %.not19, label %_ZN12ResourceMarkD2Ev.exit, label %.preheader

.preheader:                                       ; preds = %2, %.preheader
  %.012 = phi ptr [ %9, %.preheader ], [ %4, %2 ]
  %.0 = phi ptr [ %.012, %.preheader ], [ %4, %2 ]
  %8 = getelementptr inbounds i8, ptr %.012, i64 144
  %9 = load ptr, ptr %8, align 8
  %.not15 = icmp eq ptr %9, null
  br i1 %.not15, label %10, label %.preheader, !llvm.loop !26

10:                                               ; preds = %.preheader
  %11 = getelementptr inbounds i8, ptr %.0, i64 144
  store ptr null, ptr %11, align 8
  %12 = getelementptr inbounds i8, ptr %.012, i64 188
  %13 = load i16, ptr %12, align 4
  %14 = and i16 %13, -3
  store i16 %14, ptr %12, align 4
  %15 = load volatile ptr, ptr getelementptr inbounds (i8, ptr @_ZN16LogTagSetMappingILN6LogTag4typeE14ELS1_0ELS1_0ELS1_0ELS1_0ELS1_0EE7_tagsetE, i64 56), align 8
  %.not20 = icmp eq ptr %15, null
  br i1 %.not20, label %_ZN12ResourceMarkD2Ev.exit, label %16

16:                                               ; preds = %10
  %17 = tail call align 8 ptr @llvm.threadlocal.address.p0(ptr align 8 @_ZN6Thread12_thr_currentE)
  %18 = load ptr, ptr %17, align 8
  %19 = getelementptr inbounds i8, ptr %18, i64 800
  %20 = load ptr, ptr %19, align 8
  %21 = getelementptr inbounds i8, ptr %20, i64 24
  %22 = load ptr, ptr %21, align 8
  %23 = getelementptr inbounds i8, ptr %20, i64 32
  %24 = load ptr, ptr %23, align 8
  %25 = getelementptr inbounds i8, ptr %20, i64 40
  %26 = load ptr, ptr %25, align 8
  %27 = getelementptr inbounds i8, ptr %20, i64 8
  %28 = load i64, ptr %27, align 8
  %29 = load volatile ptr, ptr getelementptr inbounds (i8, ptr @_ZN16LogTagSetMappingILN6LogTag4typeE14ELS1_0ELS1_0ELS1_0ELS1_0ELS1_0EE7_tagsetE, i64 56), align 8
  %.not21 = icmp eq ptr %29, null
  br i1 %.not21, label %32, label %30

30:                                               ; preds = %16
  %31 = tail call noundef ptr @_ZNK5Klass13external_nameEv(ptr noundef nonnull align 8 dereferenceable(196) %.012) #18
  tail call void (ptr, ...) @_ZN7LogImplILN6LogTag4typeE14ELS1_0ELS1_0ELS1_0ELS1_0ELS1_0EE5writeILN8LogLevel4typeE2EEEvPKcz(ptr noundef nonnull @.str.30, ptr noundef %31)
  br label %32

32:                                               ; preds = %16, %30
  %33 = load ptr, ptr %22, align 8
  %.not.i.i.i.i = icmp eq ptr %33, null
  br i1 %.not.i.i.i.i, label %35, label %34

34:                                               ; preds = %32
  tail call void @_ZN5Arena17set_size_in_bytesEm(ptr noundef nonnull align 8 dereferenceable(48) %20, i64 noundef %28) #18
  tail call void @_ZN5Chunk9next_chopEPS_(ptr noundef nonnull %22) #18
  br label %35

35:                                               ; preds = %34, %32
  %36 = load ptr, ptr %23, align 8
  %.not8.i.i.i.i = icmp eq ptr %36, %24
  br i1 %.not8.i.i.i.i, label %_ZN12ResourceMarkD2Ev.exit, label %37

37:                                               ; preds = %35
  store ptr %22, ptr %21, align 8
  store ptr %24, ptr %23, align 8
  store ptr %26, ptr %25, align 8
  br label %_ZN12ResourceMarkD2Ev.exit

_ZN12ResourceMarkD2Ev.exit:                       ; preds = %37, %35, %2, %10, %1
  %.013 = phi ptr [ %.012, %10 ], [ null, %2 ], [ null, %1 ], [ %.012, %35 ], [ %.012, %37 ]
  ret ptr %.013
}